; ModuleID = '14/1144.c'
source_filename = "14/1144.c"
target datalayout = "e-m:e-p270:32:32-p271:32:32-p272:64:64-i64:64-f80:128-n8:16:32:64-S128"
target triple = "x86_64-pc-linux-gnu"

%struct.student = type { i32, i32, i32, i32, %struct.student* }

@.str = private unnamed_addr constant [3 x i8] c"%d\00", align 1
@.str.1 = private unnamed_addr constant [9 x i8] c"%d %d %d\00", align 1
@.str.2 = private unnamed_addr constant [7 x i8] c"%d %d\0A\00", align 1

; Function Attrs: noinline nounwind uwtable
define dso_local void @main() #0 {
  %1 = alloca i32, align 4
  %2 = alloca i32, align 4
  %3 = alloca i32, align 4
  %4 = alloca %struct.student*, align 8
  %5 = alloca %struct.student*, align 8
  %6 = alloca %struct.student*, align 8
  store %struct.student* null, %struct.student** %6, align 8
  store %struct.student* null, %struct.student** %5, align 8
  store %struct.student* null, %struct.student** %4, align 8
  %7 = call i32 (i8*, ...) @__isoc99_scanf(i8* getelementptr inbounds ([3 x i8], [3 x i8]* @.str, i64 0, i64 0), i32* %1)
  store i32 0, i32* %2, align 4
  br label %8

8:                                                ; preds = %41, %0
  %9 = load i32, i32* %2, align 4
  %10 = load i32, i32* %1, align 4
  %11 = icmp slt i32 %9, %10
  br i1 %11, label %12, label %44

12:                                               ; preds = %8
  %13 = call noalias i8* @malloc(i64 24) #3
  %14 = bitcast i8* %13 to %struct.student*
  store %struct.student* %14, %struct.student** %4, align 8
  %15 = load %struct.student*, %struct.student** %4, align 8
  %16 = getelementptr inbounds %struct.student, %struct.student* %15, i32 0, i32 0
  %17 = load %struct.student*, %struct.student** %4, align 8
  %18 = getelementptr inbounds %struct.student, %struct.student* %17, i32 0, i32 1
  %19 = load %struct.student*, %struct.student** %4, align 8
  %20 = getelementptr inbounds %struct.student, %struct.student* %19, i32 0, i32 2
  %21 = call i32 (i8*, ...) @__isoc99_scanf(i8* getelementptr inbounds ([9 x i8], [9 x i8]* @.str.1, i64 0, i64 0), i32* %16, i32* %18, i32* %20)
  %22 = load %struct.student*, %struct.student** %4, align 8
  %23 = getelementptr inbounds %struct.student, %struct.student* %22, i32 0, i32 1
  %24 = load i32, i32* %23, align 4
  %25 = load %struct.student*, %struct.student** %4, align 8
  %26 = getelementptr inbounds %struct.student, %struct.student* %25, i32 0, i32 2
  %27 = load i32, i32* %26, align 8
  %28 = add nsw i32 %24, %27
  %29 = load %struct.student*, %struct.student** %4, align 8
  %30 = getelementptr inbounds %struct.student, %struct.student* %29, i32 0, i32 3
  store i32 %28, i32* %30, align 4
  %31 = load i32, i32* %2, align 4
  %32 = icmp eq i32 %31, 0
  br i1 %32, label %33, label %35

33:                                               ; preds = %12
  %34 = load %struct.student*, %struct.student** %4, align 8
  store %struct.student* %34, %struct.student** %6, align 8
  br label %39

35:                                               ; preds = %12
  %36 = load %struct.student*, %struct.student** %4, align 8
  %37 = load %struct.student*, %struct.student** %5, align 8
  %38 = getelementptr inbounds %struct.student, %struct.student* %37, i32 0, i32 4
  store %struct.student* %36, %struct.student** %38, align 8
  br label %39

39:                                               ; preds = %35, %33
  %40 = load %struct.student*, %struct.student** %4, align 8
  store %struct.student* %40, %struct.student** %5, align 8
  br label %41

41:                                               ; preds = %39
  %42 = load i32, i32* %2, align 4
  %43 = add nsw i32 %42, 1
  store i32 %43, i32* %2, align 4
  br label %8

44:                                               ; preds = %8
  %45 = load %struct.student*, %struct.student** %5, align 8
  %46 = getelementptr inbounds %struct.student, %struct.student* %45, i32 0, i32 4
  store %struct.student* null, %struct.student** %46, align 8
  store i32 0, i32* %2, align 4
  br label %47

47:                                               ; preds = %96, %44
  %48 = load i32, i32* %2, align 4
  %49 = icmp slt i32 %48, 3
  br i1 %49, label %50, label %99

50:                                               ; preds = %47
  %51 = load %struct.student*, %struct.student** %6, align 8
  store %struct.student* %51, %struct.student** %4, align 8
  store %struct.student* %51, %struct.student** %5, align 8
  %52 = load %struct.student*, %struct.student** %4, align 8
  %53 = getelementptr inbounds %struct.student, %struct.student* %52, i32 0, i32 3
  %54 = load i32, i32* %53, align 4
  store i32 %54, i32* %3, align 4
  br label %55

55:                                               ; preds = %69, %50
  %56 = load %struct.student*, %struct.student** %4, align 8
  %57 = icmp ne %struct.student* %56, null
  br i1 %57, label %58, label %73

58:                                               ; preds = %55
  %59 = load %struct.student*, %struct.student** %4, align 8
  %60 = getelementptr inbounds %struct.student, %struct.student* %59, i32 0, i32 3
  %61 = load i32, i32* %60, align 4
  %62 = load i32, i32* %3, align 4
  %63 = icmp sgt i32 %61, %62
  br i1 %63, label %64, label %69

64:                                               ; preds = %58
  %65 = load %struct.student*, %struct.student** %4, align 8
  %66 = getelementptr inbounds %struct.student, %struct.student* %65, i32 0, i32 3
  %67 = load i32, i32* %66, align 4
  store i32 %67, i32* %3, align 4
  %68 = load %struct.student*, %struct.student** %4, align 8
  store %struct.student* %68, %struct.student** %5, align 8
  br label %69

69:                                               ; preds = %64, %58
  %70 = load %struct.student*, %struct.student** %4, align 8
  %71 = getelementptr inbounds %struct.student, %struct.student* %70, i32 0, i32 4
  %72 = load %struct.student*, %struct.student** %71, align 8
  store %struct.student* %72, %struct.student** %4, align 8
  br label %55

73:                                               ; preds = %55
  %74 = load %struct.student*, %struct.student** %5, align 8
  %75 = getelementptr inbounds %struct.student, %struct.student* %74, i32 0, i32 0
  %76 = load i32, i32* %75, align 8
  %77 = load i32, i32* %3, align 4
  %78 = call i32 (i8*, ...) @printf(i8* getelementptr inbounds ([7 x i8], [7 x i8]* @.str.2, i64 0, i64 0), i32 %76, i32 %77)
  %79 = load %struct.student*, %struct.student** %6, align 8
  store %struct.student* %79, %struct.student** %4, align 8
  br label %80

80:                                               ; preds = %86, %73
  %81 = load %struct.student*, %struct.student** %4, align 8
  %82 = getelementptr inbounds %struct.student, %struct.student* %81, i32 0, i32 4
  %83 = load %struct.student*, %struct.student** %82, align 8
  %84 = load %struct.student*, %struct.student** %5, align 8
  %85 = icmp ne %struct.student* %83, %84
  br i1 %85, label %86, label %90

86:                                               ; preds = %80
  %87 = load %struct.student*, %struct.student** %4, align 8
  %88 = getelementptr inbounds %struct.student, %struct.student* %87, i32 0, i32 4
  %89 = load %struct.student*, %struct.student** %88, align 8
  store %struct.student* %89, %struct.student** %4, align 8
  br label %80

90:                                               ; preds = %80
  %91 = load %struct.student*, %struct.student** %5, align 8
  %92 = getelementptr inbounds %struct.student, %struct.student* %91, i32 0, i32 4
  %93 = load %struct.student*, %struct.student** %92, align 8
  %94 = load %struct.student*, %struct.student** %4, align 8
  %95 = getelementptr inbounds %struct.student, %struct.student* %94, i32 0, i32 4
  store %struct.student* %93, %struct.student** %95, align 8
  br label %96

96:                                               ; preds = %90
  %97 = load i32, i32* %2, align 4
  %98 = add nsw i32 %97, 1
  store i32 %98, i32* %2, align 4
  br label %47

99:                                               ; preds = %47
  ret void
}

declare dso_local i32 @__isoc99_scanf(i8*, ...) #1

; Function Attrs: nounwind
declare dso_local noalias i8* @malloc(i64) #2

declare dso_local i32 @printf(i8*, ...) #1


!llvm.module.flags = !{!0}
!llvm.ident = !{!1}

!0 = !{i32 1, !"wchar_size", i32 4}
!1 = !{!"clang version 10.0.0-4ubuntu1 "}
